target datalayout = "e-m:e-p270:32:32-p271:32:32-p272:64:64-i64:64-i128:128-f80:128-n8:16:32:64-S128"
target triple = "x86_64-pc-linux-gnu"

%struct.sheng = type { [256 x <2 x i64>], i32, i32, i32, i32, i8, i8, i8, i8, i32 }
%struct.sstate_aux = type { i32, i32, i32, i32 }
%struct.report_list = type { i32, [0 x i32] }

; Function Attrs: alwaysinline nounwind uwtable
define internal ptr @get_rl(ptr noundef %0, ptr noundef %1) #2 {
  %3 = alloca ptr, align 8
  %4 = alloca ptr, align 8
  store ptr %0, ptr %3, align 8
  store ptr %1, ptr %4, align 8
  br label %5

5:                                                ; preds = %2
  br label %6

6:                                                ; preds = %5
  %7 = load ptr, ptr %3, align 8
  %8 = load ptr, ptr %4, align 8
  %9 = getelementptr inbounds nuw %struct.sstate_aux, ptr %8, i32 0, i32 0
  %10 = load i32, ptr %9, align 4
  %11 = zext i32 %10 to i64
  %12 = getelementptr inbounds nuw i8, ptr %7, i64 %11
  %13 = getelementptr inbounds i8, ptr %12, i64 -64
  ret ptr %13
}

; Function Attrs: alwaysinline nounwind uwtable
define internal ptr @get_eod_rl(ptr noundef %0, ptr noundef %1) #2 {
  %3 = alloca ptr, align 8
  %4 = alloca ptr, align 8
  store ptr %0, ptr %3, align 8
  store ptr %1, ptr %4, align 8
  br label %5

5:                                                ; preds = %2
  br label %6

6:                                                ; preds = %5
  %7 = load ptr, ptr %3, align 8
  %8 = load ptr, ptr %4, align 8
  %9 = getelementptr inbounds nuw %struct.sstate_aux, ptr %8, i32 0, i32 1
  %10 = load i32, ptr %9, align 4
  %11 = zext i32 %10 to i64
  %12 = getelementptr inbounds nuw i8, ptr %7, i64 %11
  %13 = getelementptr inbounds i8, ptr %12, i64 -64
  ret ptr %13
}

; Function Attrs: alwaysinline nounwind uwtable
define internal signext i8 @fireReports(ptr noundef %0, ptr noundef %1, ptr noundef %2, i8 noundef zeroext %3, i64 noundef %4, ptr noundef %5, ptr noundef %6, i8 noundef signext %7) #2 {
  %9 = alloca i8, align 1
  %10 = alloca ptr, align 8
  %11 = alloca ptr, align 8
  %12 = alloca ptr, align 8
  %13 = alloca i8, align 1
  %14 = alloca i64, align 8
  %15 = alloca ptr, align 8
  %16 = alloca ptr, align 8
  %17 = alloca i8, align 1
  %18 = alloca ptr, align 8
  %19 = alloca ptr, align 8
  %20 = alloca i32, align 4
  %21 = alloca i32, align 4
  %22 = alloca i32, align 4
  store ptr %0, ptr %10, align 8
  store ptr %1, ptr %11, align 8
  store ptr %2, ptr %12, align 8
  store i8 %3, ptr %13, align 1
  store i64 %4, ptr %14, align 8
  store ptr %5, ptr %15, align 8
  store ptr %6, ptr %16, align 8
  store i8 %7, ptr %17, align 1
  br label %23

23:                                               ; preds = %8
  br label %24

24:                                               ; preds = %23
  %25 = load i8, ptr %17, align 1
  %26 = icmp ne i8 %25, 0
  br i1 %26, label %46, label %27

27:                                               ; preds = %24
  %28 = load i8, ptr %13, align 1
  %29 = zext i8 %28 to i32
  %30 = load ptr, ptr %15, align 8
  %31 = load i8, ptr %30, align 1
  %32 = zext i8 %31 to i32
  %33 = icmp eq i32 %29, %32
  br i1 %33, label %34, label %46

34:                                               ; preds = %27
  br label %35

35:                                               ; preds = %34
  br label %36

36:                                               ; preds = %35
  %37 = load ptr, ptr %11, align 8
  %38 = load i64, ptr %14, align 8
  %39 = load ptr, ptr %16, align 8
  %40 = load i32, ptr %39, align 4
  %41 = load ptr, ptr %12, align 8
  %42 = call i32 %37(i64 noundef 0, i64 noundef %38, i32 noundef %40, ptr noundef %41)
  %43 = icmp eq i32 %42, 0
  br i1 %43, label %44, label %45

44:                                               ; preds = %36
  store i8 0, ptr %9, align 1
  br label %126

45:                                               ; preds = %36
  store i8 1, ptr %9, align 1
  br label %126

46:                                               ; preds = %27, %24
  call void @llvm.lifetime.start.p0(i64 8, ptr %18) #7
  %47 = load ptr, ptr %10, align 8
  %48 = load i8, ptr %13, align 1
  %49 = call ptr @get_aux(ptr noundef %47, i8 noundef zeroext %48)
  store ptr %49, ptr %18, align 8
  call void @llvm.lifetime.start.p0(i64 8, ptr %19) #7
  %50 = load i8, ptr %17, align 1
  %51 = sext i8 %50 to i32
  %52 = icmp ne i32 %51, 0
  br i1 %52, label %53, label %57

53:                                               ; preds = %46
  %54 = load ptr, ptr %10, align 8
  %55 = load ptr, ptr %18, align 8
  %56 = call ptr @get_eod_rl(ptr noundef %54, ptr noundef %55)
  br label %61

57:                                               ; preds = %46
  %58 = load ptr, ptr %10, align 8
  %59 = load ptr, ptr %18, align 8
  %60 = call ptr @get_rl(ptr noundef %58, ptr noundef %59)
  br label %61

61:                                               ; preds = %57, %53
  %62 = phi ptr [ %56, %53 ], [ %60, %57 ]
  store ptr %62, ptr %19, align 8
  br label %63

63:                                               ; preds = %61
  br label %64

64:                                               ; preds = %63
  br label %65

65:                                               ; preds = %64
  call void @llvm.lifetime.start.p0(i64 4, ptr %20) #7
  %66 = load ptr, ptr %19, align 8
  %67 = getelementptr inbounds nuw %struct.report_list, ptr %66, i32 0, i32 0
  %68 = load i32, ptr %67, align 4
  store i32 %68, ptr %20, align 4
  %69 = load i8, ptr %17, align 1
  %70 = icmp ne i8 %69, 0
  br i1 %70, label %96, label %71

71:                                               ; preds = %65
  %72 = load i32, ptr %20, align 4
  %73 = icmp eq i32 %72, 1
  br i1 %73, label %74, label %96

74:                                               ; preds = %71
  %75 = load i8, ptr %13, align 1
  %76 = load ptr, ptr %15, align 8
  store i8 %75, ptr %76, align 1
  %77 = load ptr, ptr %19, align 8
  %78 = getelementptr inbounds nuw %struct.report_list, ptr %77, i32 0, i32 1
  %79 = getelementptr inbounds [0 x i32], ptr %78, i64 0, i64 0
  %80 = load i32, ptr %79, align 4
  %81 = load ptr, ptr %16, align 8
  store i32 %80, ptr %81, align 4
  br label %82

82:                                               ; preds = %74
  br label %83

83:                                               ; preds = %82
  br label %84

84:                                               ; preds = %83
  %85 = load ptr, ptr %11, align 8
  %86 = load i64, ptr %14, align 8
  %87 = load ptr, ptr %19, align 8
  %88 = getelementptr inbounds nuw %struct.report_list, ptr %87, i32 0, i32 1
  %89 = getelementptr inbounds [0 x i32], ptr %88, i64 0, i64 0
  %90 = load i32, ptr %89, align 4
  %91 = load ptr, ptr %12, align 8
  %92 = call i32 %85(i64 noundef 0, i64 noundef %86, i32 noundef %90, ptr noundef %91)
  %93 = icmp eq i32 %92, 0
  br i1 %93, label %94, label %95

94:                                               ; preds = %84
  store i8 0, ptr %9, align 1
  store i32 1, ptr %21, align 4
  br label %125

95:                                               ; preds = %84
  store i8 1, ptr %9, align 1
  store i32 1, ptr %21, align 4
  br label %125

96:                                               ; preds = %71, %65
  call void @llvm.lifetime.start.p0(i64 4, ptr %22) #7
  store i32 0, ptr %22, align 4
  br label %97

97:                                               ; preds = %119, %96
  %98 = load i32, ptr %22, align 4
  %99 = load i32, ptr %20, align 4
  %100 = icmp ult i32 %98, %99
  br i1 %100, label %102, label %101

101:                                              ; preds = %97
  store i32 10, ptr %21, align 4
  br label %122

102:                                              ; preds = %97
  br label %103

103:                                              ; preds = %102
  br label %104

104:                                              ; preds = %103
  br label %105

105:                                              ; preds = %104
  %106 = load ptr, ptr %11, align 8
  %107 = load i64, ptr %14, align 8
  %108 = load ptr, ptr %19, align 8
  %109 = getelementptr inbounds nuw %struct.report_list, ptr %108, i32 0, i32 1
  %110 = load i32, ptr %22, align 4
  %111 = zext i32 %110 to i64
  %112 = getelementptr inbounds nuw [0 x i32], ptr %109, i64 0, i64 %111
  %113 = load i32, ptr %112, align 4
  %114 = load ptr, ptr %12, align 8
  %115 = call i32 %106(i64 noundef 0, i64 noundef %107, i32 noundef %113, ptr noundef %114)
  %116 = icmp eq i32 %115, 0
  br i1 %116, label %117, label %118

117:                                              ; preds = %105
  store i8 0, ptr %9, align 1
  store i32 1, ptr %21, align 4
  br label %122

118:                                              ; preds = %105
  br label %119

119:                                              ; preds = %118
  %120 = load i32, ptr %22, align 4
  %121 = add i32 %120, 1
  store i32 %121, ptr %22, align 4
  br label %97

122:                                              ; preds = %117, %101
  call void @llvm.lifetime.end.p0(i64 4, ptr %22) #7
  %123 = load i32, ptr %21, align 4
  switch i32 %123, label %125 [
    i32 10, label %124
  ]

124:                                              ; preds = %122
  store i8 1, ptr %9, align 1
  store i32 1, ptr %21, align 4
  br label %125

125:                                              ; preds = %124, %122, %95, %94
  call void @llvm.lifetime.end.p0(i64 4, ptr %20) #7
  call void @llvm.lifetime.end.p0(i64 8, ptr %19) #7
  call void @llvm.lifetime.end.p0(i64 8, ptr %18) #7
  br label %126

126:                                              ; preds = %125, %45, %44
  %127 = load i8, ptr %9, align 1
  ret i8 %127
}

; Function Attrs: alwaysinline nounwind uwtable
define internal ptr @get_aux(ptr noundef %0, i8 noundef zeroext %1) #2 {
  %3 = alloca ptr, align 8
  %4 = alloca i8, align 1
  %5 = alloca i32, align 4
  store ptr %0, ptr %3, align 8
  store i8 %1, ptr %4, align 1
  call void @llvm.lifetime.start.p0(i64 4, ptr %5) #7
  %6 = load ptr, ptr %3, align 8
  %7 = getelementptr inbounds nuw %struct.sheng, ptr %6, i32 0, i32 2
  %8 = load i32, ptr %7, align 4
  %9 = zext i32 %8 to i64
  %10 = sub i64 %9, 64
  %11 = load i8, ptr %4, align 1
  %12 = zext i8 %11 to i32
  %13 = and i32 %12, 15
  %14 = sext i32 %13 to i64
  %15 = mul i64 %14, 16
  %16 = add i64 %10, %15
  %17 = trunc i64 %16 to i32
  store i32 %17, ptr %5, align 4
  br label %18

18:                                               ; preds = %2
  br label %19

19:                                               ; preds = %18
  br label %20

20:                                               ; preds = %19
  %21 = load ptr, ptr %3, align 8
  %22 = load i32, ptr %5, align 4
  %23 = zext i32 %22 to i64
  %24 = getelementptr inbounds nuw i8, ptr %21, i64 %23
  call void @llvm.lifetime.end.p0(i64 4, ptr %5) #7
  ret ptr %24
}

; Function Attrs: alwaysinline nounwind uwtable
define internal ptr @get_sheng(ptr noundef %0) #2 {
  %2 = alloca ptr, align 8
  store ptr %0, ptr %2, align 8
  %3 = load ptr, ptr %2, align 8
  %4 = getelementptr inbounds nuw i8, ptr %3, i64 64
  ret ptr %4
}

; Function Attrs: nounwind uwtable
define hidden signext i8 @nfaExecSheng_testEOD(ptr noundef %0, ptr noundef %1, ptr noundef %2, i64 noundef %3, ptr noundef %4, ptr noundef %5) #0 {
  %7 = alloca i8, align 1
  %8 = alloca ptr, align 8
  %9 = alloca ptr, align 8
  %10 = alloca ptr, align 8
  %11 = alloca i64, align 8
  %12 = alloca ptr, align 8
  %13 = alloca ptr, align 8
  %14 = alloca ptr, align 8
  %15 = alloca i8, align 1
  %16 = alloca ptr, align 8
  %17 = alloca i32, align 4
  store ptr %0, ptr %8, align 8
  store ptr %1, ptr %9, align 8
  store ptr %2, ptr %10, align 8
  store i64 %3, ptr %11, align 8
  store ptr %4, ptr %12, align 8
  store ptr %5, ptr %13, align 8
  call void @llvm.lifetime.start.p0(i64 8, ptr %14) #7
  %18 = load ptr, ptr %8, align 8
  %19 = call ptr @get_sheng(ptr noundef %18)
  store ptr %19, ptr %14, align 8
  call void @llvm.lifetime.start.p0(i64 1, ptr %15) #7
  %20 = load ptr, ptr %9, align 8
  %21 = load i8, ptr %20, align 1
  store i8 %21, ptr %15, align 1
  br label %22

22:                                               ; preds = %6
  br label %23

23:                                               ; preds = %22
  br label %24

24:                                               ; preds = %23
  call void @llvm.lifetime.start.p0(i64 8, ptr %16) #7
  %25 = load ptr, ptr %14, align 8
  %26 = load i8, ptr %15, align 1
  %27 = call ptr @get_aux(ptr noundef %25, i8 noundef zeroext %26)
  store ptr %27, ptr %16, align 8
  %28 = load ptr, ptr %16, align 8
  %29 = getelementptr inbounds nuw %struct.sstate_aux, ptr %28, i32 0, i32 1
  %30 = load i32, ptr %29, align 4
  %31 = icmp ne i32 %30, 0
  br i1 %31, label %33, label %32

32:                                               ; preds = %24
  store i8 1, ptr %7, align 1
  store i32 1, ptr %17, align 4
  br label %40

33:                                               ; preds = %24
  %34 = load ptr, ptr %14, align 8
  %35 = load ptr, ptr %12, align 8
  %36 = load ptr, ptr %13, align 8
  %37 = load i8, ptr %15, align 1
  %38 = load i64, ptr %11, align 8
  %39 = call signext i8 @fireReports(ptr noundef %34, ptr noundef %35, ptr noundef %36, i8 noundef zeroext %37, i64 noundef %38, ptr noundef null, ptr noundef null, i8 noundef signext 1)
  store i8 %39, ptr %7, align 1
  store i32 1, ptr %17, align 4
  br label %40

40:                                               ; preds = %33, %32
  call void @llvm.lifetime.end.p0(i64 8, ptr %16) #7
  call void @llvm.lifetime.end.p0(i64 1, ptr %15) #7
  call void @llvm.lifetime.end.p0(i64 8, ptr %14) #7
  %41 = load i8, ptr %7, align 1
  ret i8 %41
}