; Function Attrs: nounwind uwtable
define hidden signext range(i8 0, 2) i8 @nfaExecSheng_testEOD(ptr noundef readonly captures(none) %0, ptr noundef readonly captures(none) %1, ptr noundef readnone captures(none) %2, i64 noundef %3, ptr noundef readonly captures(none) %4, ptr noundef %5) local_unnamed_addr #1 {
  %7 = getelementptr inbounds nuw i8, ptr %0, i64 64
  %8 = load i8, ptr %1, align 1
  %9 = getelementptr inbounds nuw i8, ptr %0, i64 4164
  %10 = load i32, ptr %9, align 4
  %11 = add i32 %10, -64
  %12 = shl i8 %8, 4
  %13 = zext i8 %12 to i32
  %14 = add i32 %11, %13
  %15 = zext i32 %14 to i64
  %16 = getelementptr inbounds nuw i8, ptr %7, i64 %15
  %17 = getelementptr inbounds nuw i8, ptr %16, i64 4
  %18 = load i32, ptr %17, align 4
  %.not = icmp eq i32 %18, 0
  br i1 %.not, label %fireReports.exit, label %19

19:                                               ; preds = %6
  %20 = zext i32 %18 to i64
  %21 = getelementptr inbounds nuw i8, ptr %7, i64 %20
  %22 = getelementptr inbounds i8, ptr %21, i64 -64
  %23 = load i32, ptr %22, align 4
  %24 = getelementptr inbounds i8, ptr %21, i64 -60
  %.not38.i10 = icmp eq i32 %23, 0
  br i1 %.not38.i10, label %fireReports.exit, label %.lr.ph.preheader

.lr.ph.preheader:                                 ; preds = %19
  %wide.trip.count = zext i32 %23 to i64
  br label %.lr.ph

25:                                               ; preds = %.lr.ph
  %indvars.iv.next = add nuw nsw i64 %indvars.iv, 1
  %exitcond.not = icmp eq i64 %indvars.iv.next, %wide.trip.count
  br i1 %exitcond.not, label %fireReports.exit, label %.lr.ph

.lr.ph:                                           ; preds = %.lr.ph.preheader, %25
  %indvars.iv = phi i64 [ 0, %.lr.ph.preheader ], [ %indvars.iv.next, %25 ]
  %26 = getelementptr inbounds nuw [0 x i32], ptr %24, i64 0, i64 %indvars.iv
  %27 = load i32, ptr %26, align 4
  %28 = tail call i32 %4(i64 noundef 0, i64 noundef %3, i32 noundef %27, ptr noundef %5) #11
  %29 = icmp eq i32 %28, 0
  br i1 %29, label %fireReports.exit, label %25

fireReports.exit:                                 ; preds = %25, %.lr.ph, %19, %6
  %.0 = phi i8 [ 1, %6 ], [ 1, %19 ], [ 1, %25 ], [ 0, %.lr.ph ]
  ret i8 %.0
}